; Function Attrs: nounwind uwtable
define ptr @l_Lake_EStateT_tryCatch___rarg___lambda__1(ptr noundef %0, ptr noundef %1, ptr noundef %2) #0 {
  %4 = ptrtoint ptr %2 to i64
  %5 = and i64 %4, 1
  %.not.i37 = icmp eq i64 %5, 0
  br i1 %.not.i37, label %9, label %6

6:                                                ; preds = %3
  %7 = lshr i64 %4, 1
  %8 = trunc i64 %7 to i32
  br label %lean_obj_tag.exit

9:                                                ; preds = %3
  %10 = getelementptr i8, ptr %2, i64 4
  %.val.i = load i32, ptr %10, align 4
  %11 = lshr i32 %.val.i, 24
  br label %lean_obj_tag.exit

lean_obj_tag.exit:                                ; preds = %6, %9
  %.0.i = phi i32 [ %8, %6 ], [ %11, %9 ]
  %12 = icmp eq i32 %.0.i, 0
  br i1 %12, label %13, label %60

13:                                               ; preds = %lean_obj_tag.exit
  %14 = ptrtoint ptr %1 to i64
  %15 = and i64 %14, 1
  %.not52 = icmp eq i64 %15, 0
  br i1 %.not52, label %16, label %lean_dec.exit28

16:                                               ; preds = %13
  %17 = load i32, ptr %1, align 4, !tbaa !4
  %18 = icmp sgt i32 %17, 1
  br i1 %18, label %19, label %21, !prof !13

19:                                               ; preds = %16
  %20 = add nsw i32 %17, -1
  store i32 %20, ptr %1, align 4, !tbaa !4
  br label %lean_dec.exit28

21:                                               ; preds = %16
  %.not.i = icmp eq i32 %17, 0
  br i1 %.not.i, label %lean_dec.exit28, label %22

22:                                               ; preds = %21
  tail call void @lean_dec_ref_cold(ptr noundef nonnull %1) #4
  br label %lean_dec.exit28

lean_dec.exit28:                                  ; preds = %22, %21, %19, %13
  %23 = getelementptr inbounds nuw i8, ptr %0, i64 8
  %24 = load ptr, ptr %23, align 8, !tbaa !9
  %25 = ptrtoint ptr %24 to i64
  %26 = and i64 %25, 1
  %.not53 = icmp eq i64 %26, 0
  br i1 %.not53, label %27, label %lean_inc.exit24

27:                                               ; preds = %lean_dec.exit28
  %.val.i38 = load i32, ptr %24, align 4, !tbaa !4
  %28 = icmp sgt i32 %.val.i38, 0
  br i1 %28, label %29, label %31, !prof !13

29:                                               ; preds = %27
  %30 = add nuw i32 %.val.i38, 1
  store i32 %30, ptr %24, align 4, !tbaa !4
  br label %lean_inc.exit24

31:                                               ; preds = %27
  %.not.i39 = icmp eq i32 %.val.i38, 0
  br i1 %.not.i39, label %lean_inc.exit24, label %32

32:                                               ; preds = %31
  tail call void @lean_inc_ref_cold(ptr noundef nonnull %24) #4
  br label %lean_inc.exit24

lean_inc.exit24:                                  ; preds = %32, %31, %29, %lean_dec.exit28
  %33 = ptrtoint ptr %0 to i64
  %34 = and i64 %33, 1
  %.not54 = icmp eq i64 %34, 0
  br i1 %.not54, label %35, label %lean_dec.exit27

35:                                               ; preds = %lean_inc.exit24
  %36 = load i32, ptr %0, align 4, !tbaa !4
  %37 = icmp sgt i32 %36, 1
  br i1 %37, label %38, label %40, !prof !13

38:                                               ; preds = %35
  %39 = add nsw i32 %36, -1
  store i32 %39, ptr %0, align 4, !tbaa !4
  br label %lean_dec.exit27

40:                                               ; preds = %35
  %.not.i29 = icmp eq i32 %36, 0
  br i1 %.not.i29, label %lean_dec.exit27, label %41

41:                                               ; preds = %40
  tail call void @lean_dec_ref_cold(ptr noundef nonnull %0) #4
  br label %lean_dec.exit27

lean_dec.exit27:                                  ; preds = %41, %40, %38, %lean_inc.exit24
  %42 = getelementptr inbounds nuw i8, ptr %24, i64 16
  %43 = load ptr, ptr %42, align 8, !tbaa !9
  %44 = ptrtoint ptr %43 to i64
  %45 = and i64 %44, 1
  %.not55 = icmp eq i64 %45, 0
  br i1 %.not55, label %46, label %lean_inc.exit23

46:                                               ; preds = %lean_dec.exit27
  %.val.i40 = load i32, ptr %43, align 4, !tbaa !4
  %47 = icmp sgt i32 %.val.i40, 0
  br i1 %47, label %48, label %50, !prof !13

48:                                               ; preds = %46
  %49 = add nuw i32 %.val.i40, 1
  store i32 %49, ptr %43, align 4, !tbaa !4
  br label %lean_inc.exit23

50:                                               ; preds = %46
  %.not.i41 = icmp eq i32 %.val.i40, 0
  br i1 %.not.i41, label %lean_inc.exit23, label %51

51:                                               ; preds = %50
  tail call void @lean_inc_ref_cold(ptr noundef nonnull %43) #4
  br label %lean_inc.exit23

lean_inc.exit23:                                  ; preds = %51, %50, %48, %lean_dec.exit27
  br i1 %.not53, label %52, label %lean_dec.exit26

52:                                               ; preds = %lean_inc.exit23
  %53 = load i32, ptr %24, align 4, !tbaa !4
  %54 = icmp sgt i32 %53, 1
  br i1 %54, label %55, label %57, !prof !13

55:                                               ; preds = %52
  %56 = add nsw i32 %53, -1
  store i32 %56, ptr %24, align 4, !tbaa !4
  br label %lean_dec.exit26

57:                                               ; preds = %52
  %.not.i31 = icmp eq i32 %53, 0
  br i1 %.not.i31, label %lean_dec.exit26, label %58

58:                                               ; preds = %57
  tail call void @lean_dec_ref_cold(ptr noundef nonnull %24) #4
  br label %lean_dec.exit26

lean_dec.exit26:                                  ; preds = %58, %57, %55, %lean_inc.exit23
  %59 = tail call ptr @lean_apply_2(ptr noundef %43, ptr noundef nonnull inttoptr (i64 1 to ptr), ptr noundef %2) #4
  br label %98

60:                                               ; preds = %lean_obj_tag.exit
  %61 = ptrtoint ptr %0 to i64
  %62 = and i64 %61, 1
  %.not = icmp eq i64 %62, 0
  br i1 %.not, label %63, label %lean_dec.exit25

63:                                               ; preds = %60
  %64 = load i32, ptr %0, align 4, !tbaa !4
  %65 = icmp sgt i32 %64, 1
  br i1 %65, label %66, label %68, !prof !13

66:                                               ; preds = %63
  %67 = add nsw i32 %64, -1
  store i32 %67, ptr %0, align 4, !tbaa !4
  br label %lean_dec.exit25

68:                                               ; preds = %63
  %.not.i33 = icmp eq i32 %64, 0
  br i1 %.not.i33, label %lean_dec.exit25, label %69

69:                                               ; preds = %68
  tail call void @lean_dec_ref_cold(ptr noundef nonnull %0) #4
  br label %lean_dec.exit25

lean_dec.exit25:                                  ; preds = %69, %68, %66, %60
  %70 = getelementptr inbounds nuw i8, ptr %2, i64 8
  %71 = load ptr, ptr %70, align 8, !tbaa !9
  %72 = ptrtoint ptr %71 to i64
  %73 = and i64 %72, 1
  %.not49 = icmp eq i64 %73, 0
  br i1 %.not49, label %74, label %lean_inc.exit22

74:                                               ; preds = %lean_dec.exit25
  %.val.i43 = load i32, ptr %71, align 4, !tbaa !4
  %75 = icmp sgt i32 %.val.i43, 0
  br i1 %75, label %76, label %78, !prof !13

76:                                               ; preds = %74
  %77 = add nuw i32 %.val.i43, 1
  store i32 %77, ptr %71, align 4, !tbaa !4
  br label %lean_inc.exit22

78:                                               ; preds = %74
  %.not.i44 = icmp eq i32 %.val.i43, 0
  br i1 %.not.i44, label %lean_inc.exit22, label %79

79:                                               ; preds = %78
  tail call void @lean_inc_ref_cold(ptr noundef nonnull %71) #4
  br label %lean_inc.exit22

lean_inc.exit22:                                  ; preds = %79, %78, %76, %lean_dec.exit25
  %80 = getelementptr inbounds nuw i8, ptr %2, i64 16
  %81 = load ptr, ptr %80, align 8, !tbaa !9
  %82 = ptrtoint ptr %81 to i64
  %83 = and i64 %82, 1
  %.not50 = icmp eq i64 %83, 0
  br i1 %.not50, label %84, label %lean_inc.exit

84:                                               ; preds = %lean_inc.exit22
  %.val.i46 = load i32, ptr %81, align 4, !tbaa !4
  %85 = icmp sgt i32 %.val.i46, 0
  br i1 %85, label %86, label %88, !prof !13

86:                                               ; preds = %84
  %87 = add nuw i32 %.val.i46, 1
  store i32 %87, ptr %81, align 4, !tbaa !4
  br label %lean_inc.exit

88:                                               ; preds = %84
  %.not.i47 = icmp eq i32 %.val.i46, 0
  br i1 %.not.i47, label %lean_inc.exit, label %89

89:                                               ; preds = %88
  tail call void @lean_inc_ref_cold(ptr noundef nonnull %81) #4
  br label %lean_inc.exit

lean_inc.exit:                                    ; preds = %89, %88, %86, %lean_inc.exit22
  br i1 %.not.i37, label %90, label %lean_dec.exit

90:                                               ; preds = %lean_inc.exit
  %91 = load i32, ptr %2, align 4, !tbaa !4
  %92 = icmp sgt i32 %91, 1
  br i1 %92, label %93, label %95, !prof !13

93:                                               ; preds = %90
  %94 = add nsw i32 %91, -1
  store i32 %94, ptr %2, align 4, !tbaa !4
  br label %lean_dec.exit

95:                                               ; preds = %90
  %.not.i35 = icmp eq i32 %91, 0
  br i1 %.not.i35, label %lean_dec.exit, label %96

96:                                               ; preds = %95
  tail call void @lean_dec_ref_cold(ptr noundef nonnull %2) #4
  br label %lean_dec.exit

lean_dec.exit:                                    ; preds = %96, %95, %93, %lean_inc.exit
  %97 = tail call ptr @lean_apply_2(ptr noundef %1, ptr noundef %71, ptr noundef %81) #4
  br label %98

98:                                               ; preds = %lean_dec.exit, %lean_dec.exit26
  %.0 = phi ptr [ %59, %lean_dec.exit26 ], [ %97, %lean_dec.exit ]
  ret ptr %.0
}